target datalayout = "e-m:e-p270:32:32-p271:32:32-p272:64:64-i64:64-i128:128-f80:128-n8:16:32:64-S128"
target triple = "x86_64-pc-linux-gnu"

@hf_gryphon_reserved = internal global i32 0, align 4
@hf_gryphon_modfilt = internal global i32 0, align 4
@hf_gryphon_modfilt_action = internal global i32 0, align 4
@.str.1035 = private unnamed_addr constant [20 x i8] c"Filter handles: all\00", align 1

; Function Attrs: null_pointer_is_valid sspstrong uwtable
define internal i32 @cmd_modfilt(ptr noundef %0, i32 noundef %1, ptr noundef %2) #0 {
  %4 = alloca ptr, align 8
  %5 = alloca i32, align 4
  %6 = alloca ptr, align 8
  %7 = alloca i8, align 1
  store ptr %0, ptr %4, align 8
  store i32 %1, ptr %5, align 4
  store ptr %2, ptr %6, align 8
  call void @llvm.lifetime.start.p0(i64 1, ptr %7) #7
  %8 = load ptr, ptr %4, align 8
  %9 = load i32, ptr %5, align 4
  %10 = call zeroext i8 @tvb_get_uint8(ptr noundef %8, i32 noundef %9)
  store i8 %10, ptr %7, align 1
  %11 = load i8, ptr %7, align 1
  %12 = icmp ne i8 %11, 0
  br i1 %12, label %13, label %19

13:                                               ; preds = %3
  %14 = load ptr, ptr %6, align 8
  %15 = load i32, ptr @hf_gryphon_modfilt, align 4
  %16 = load ptr, ptr %4, align 8
  %17 = load i32, ptr %5, align 4
  %18 = call ptr @proto_tree_add_item(ptr noundef %14, i32 noundef %15, ptr noundef %16, i32 noundef %17, i32 noundef 1, i32 noundef 0)
  br label %25

19:                                               ; preds = %3
  %20 = load ptr, ptr %6, align 8
  %21 = load i32, ptr @hf_gryphon_modfilt, align 4
  %22 = load ptr, ptr %4, align 8
  %23 = load i32, ptr %5, align 4
  %24 = call ptr (ptr, i32, ptr, i32, i32, i32, ptr, ...) @proto_tree_add_uint_format_value(ptr noundef %20, i32 noundef %21, ptr noundef %22, i32 noundef %23, i32 noundef 1, i32 noundef 0, ptr noundef @.str.1035)
  br label %25

25:                                               ; preds = %19, %13
  %26 = load ptr, ptr %6, align 8
  %27 = load i32, ptr @hf_gryphon_modfilt_action, align 4
  %28 = load ptr, ptr %4, align 8
  %29 = load i32, ptr %5, align 4
  %30 = add i32 %29, 1
  %31 = call ptr @proto_tree_add_item(ptr noundef %26, i32 noundef %27, ptr noundef %28, i32 noundef %30, i32 noundef 1, i32 noundef 0)
  %32 = load ptr, ptr %6, align 8
  %33 = load i32, ptr @hf_gryphon_reserved, align 4
  %34 = load ptr, ptr %4, align 8
  %35 = load i32, ptr %5, align 4
  %36 = add i32 %35, 2
  %37 = call ptr @proto_tree_add_item(ptr noundef %32, i32 noundef %33, ptr noundef %34, i32 noundef %36, i32 noundef 2, i32 noundef 0)
  %38 = load i32, ptr %5, align 4
  %39 = add i32 %38, 4
  store i32 %39, ptr %5, align 4
  %40 = load i32, ptr %5, align 4
  call void @llvm.lifetime.end.p0(i64 1, ptr %7) #7
  ret i32 %40
}