; Function Attrs: null_pointer_is_valid sspstrong uwtable
define internal fastcc void @cmd_modfilt(ptr noundef %0, ptr noundef %1) unnamed_addr #0 {
  %3 = tail call zeroext i8 @tvb_get_uint8(ptr noundef %0, i32 noundef 12)
  %.not = icmp eq i8 %3, 0
  %4 = load i32, ptr @hf_gryphon_modfilt, align 4
  br i1 %.not, label %7, label %5

5:                                                ; preds = %2
  %6 = tail call ptr @proto_tree_add_item(ptr noundef %1, i32 noundef %4, ptr noundef %0, i32 noundef 12, i32 noundef 1, i32 noundef 0)
  br label %9

7:                                                ; preds = %2
  %8 = tail call ptr (ptr, i32, ptr, i32, i32, i32, ptr, ...) @proto_tree_add_uint_format_value(ptr noundef %1, i32 noundef %4, ptr noundef %0, i32 noundef 12, i32 noundef 1, i32 noundef 0, ptr noundef nonnull @.str.1035)
  br label %9

9:                                                ; preds = %7, %5
  %10 = load i32, ptr @hf_gryphon_modfilt_action, align 4
  %11 = tail call ptr @proto_tree_add_item(ptr noundef %1, i32 noundef %10, ptr noundef %0, i32 noundef 13, i32 noundef 1, i32 noundef 0)
  %12 = load i32, ptr @hf_gryphon_reserved, align 4
  %13 = tail call ptr @proto_tree_add_item(ptr noundef %1, i32 noundef %12, ptr noundef %0, i32 noundef 14, i32 noundef 2, i32 noundef 0)
  ret void
}